target datalayout = "e-m:e-p270:32:32-p271:32:32-p272:64:64-i64:64-i128:128-f80:128-n8:16:32:64-S128"
target triple = "x86_64-pc-linux-gnu"

; Function Attrs: nounwind uwtable
define hidden void @av1_iidentity32_c(ptr noundef %0, ptr noundef %1, i8 noundef signext %2, ptr noundef %3) #0 {
  %5 = alloca ptr, align 8
  %6 = alloca ptr, align 8
  %7 = alloca i8, align 1
  %8 = alloca ptr, align 8
  %9 = alloca i32, align 4
  store ptr %0, ptr %5, align 8
  store ptr %1, ptr %6, align 8
  store i8 %2, ptr %7, align 1
  store ptr %3, ptr %8, align 8
  store i32 0, ptr %9, align 4
  br label %10

10:                                               ; preds = %26, %4
  %11 = load i32, ptr %9, align 4
  %12 = icmp slt i32 %11, 32
  br i1 %12, label %13, label %29

13:                                               ; preds = %10
  %14 = load ptr, ptr %5, align 8
  %15 = load i32, ptr %9, align 4
  %16 = sext i32 %15 to i64
  %17 = getelementptr inbounds i32, ptr %14, i64 %16
  %18 = load i32, ptr %17, align 4
  %19 = sext i32 %18 to i64
  %20 = mul nsw i64 %19, 4
  %21 = trunc i64 %20 to i32
  %22 = load ptr, ptr %6, align 8
  %23 = load i32, ptr %9, align 4
  %24 = sext i32 %23 to i64
  %25 = getelementptr inbounds i32, ptr %22, i64 %24
  store i32 %21, ptr %25, align 4
  br label %26

26:                                               ; preds = %13
  %27 = load i32, ptr %9, align 4
  %28 = add nsw i32 %27, 1
  store i32 %28, ptr %9, align 4
  br label %10, !llvm.loop !8

29:                                               ; preds = %10
  ret void
}